target datalayout = "e-m:e-p270:32:32-p271:32:32-p272:64:64-i64:64-i128:128-f80:128-n8:16:32:64-S128"
target triple = "x86_64-pc-linux-gnu"

%"class.b3ConvexHullInternal::Int128" = type { i64, i64 }
%"class.b3ConvexHullInternal::Edge" = type <{ ptr, ptr, ptr, ptr, ptr, i32, [4 x i8] }>
%"class.b3ConvexHullInternal::Vertex" = type <{ ptr, ptr, ptr, ptr, ptr, %"class.b3ConvexHullInternal::PointR128", %"class.b3ConvexHullInternal::Point32", i32, [4 x i8] }>
%"class.b3ConvexHullInternal::PointR128" = type { %"class.b3ConvexHullInternal::Int128", %"class.b3ConvexHullInternal::Int128", %"class.b3ConvexHullInternal::Int128", %"class.b3ConvexHullInternal::Int128" }
%"class.b3ConvexHullInternal::Point32" = type { i32, i32, i32, i32 }
%"class.b3ConvexHullInternal::Point64" = type { i64, i64, i64 }

; Function Attrs: mustprogress nounwind uwtable
define linkonce_odr dso_local void @_ZN20b3ConvexHullInternal7Point32C2Eiii(ptr noundef nonnull align 4 dereferenceable(16) %0, i32 noundef %1, i32 noundef %2, i32 noundef %3) unnamed_addr #3 comdat align 2 {
  %5 = alloca ptr, align 8
  %6 = alloca i32, align 4
  %7 = alloca i32, align 4
  %8 = alloca i32, align 4
  store ptr %0, ptr %5, align 8, !tbaa !99
  store i32 %1, ptr %6, align 4, !tbaa !34
  store i32 %2, ptr %7, align 4, !tbaa !34
  store i32 %3, ptr %8, align 4, !tbaa !34
  %9 = load ptr, ptr %5, align 8
  %10 = getelementptr inbounds nuw %"class.b3ConvexHullInternal::Point32", ptr %9, i32 0, i32 0
  %11 = load i32, ptr %6, align 4, !tbaa !34
  store i32 %11, ptr %10, align 4, !tbaa !101
  %12 = getelementptr inbounds nuw %"class.b3ConvexHullInternal::Point32", ptr %9, i32 0, i32 1
  %13 = load i32, ptr %7, align 4, !tbaa !34
  store i32 %13, ptr %12, align 4, !tbaa !102
  %14 = getelementptr inbounds nuw %"class.b3ConvexHullInternal::Point32", ptr %9, i32 0, i32 2
  %15 = load i32, ptr %8, align 4, !tbaa !34
  store i32 %15, ptr %14, align 4, !tbaa !103
  %16 = getelementptr inbounds nuw %"class.b3ConvexHullInternal::Point32", ptr %9, i32 0, i32 3
  store i32 -1, ptr %16, align 4, !tbaa !127
  ret void
}

; Function Attrs: mustprogress uwtable
define linkonce_odr dso_local { i64, i64 } @_ZNK20b3ConvexHullInternal7Point32miERKS0_(ptr noundef nonnull align 4 dereferenceable(16) %0, ptr noundef nonnull align 4 dereferenceable(16) %1) #0 comdat align 2 {
  %3 = alloca %"class.b3ConvexHullInternal::Point32", align 4
  %4 = alloca ptr, align 8
  %5 = alloca ptr, align 8
  store ptr %0, ptr %4, align 8, !tbaa !99
  store ptr %1, ptr %5, align 8, !tbaa !99
  %6 = load ptr, ptr %4, align 8
  %7 = getelementptr inbounds nuw %"class.b3ConvexHullInternal::Point32", ptr %6, i32 0, i32 0
  %8 = load i32, ptr %7, align 4, !tbaa !101
  %9 = load ptr, ptr %5, align 8, !tbaa !99
  %10 = getelementptr inbounds nuw %"class.b3ConvexHullInternal::Point32", ptr %9, i32 0, i32 0
  %11 = load i32, ptr %10, align 4, !tbaa !101
  %12 = sub nsw i32 %8, %11
  %13 = getelementptr inbounds nuw %"class.b3ConvexHullInternal::Point32", ptr %6, i32 0, i32 1
  %14 = load i32, ptr %13, align 4, !tbaa !102
  %15 = load ptr, ptr %5, align 8, !tbaa !99
  %16 = getelementptr inbounds nuw %"class.b3ConvexHullInternal::Point32", ptr %15, i32 0, i32 1
  %17 = load i32, ptr %16, align 4, !tbaa !102
  %18 = sub nsw i32 %14, %17
  %19 = getelementptr inbounds nuw %"class.b3ConvexHullInternal::Point32", ptr %6, i32 0, i32 2
  %20 = load i32, ptr %19, align 4, !tbaa !103
  %21 = load ptr, ptr %5, align 8, !tbaa !99
  %22 = getelementptr inbounds nuw %"class.b3ConvexHullInternal::Point32", ptr %21, i32 0, i32 2
  %23 = load i32, ptr %22, align 4, !tbaa !103
  %24 = sub nsw i32 %20, %23
  call void @_ZN20b3ConvexHullInternal7Point32C2Eiii(ptr noundef nonnull align 4 dereferenceable(16) %3, i32 noundef %12, i32 noundef %18, i32 noundef %24)
  %25 = load { i64, i64 }, ptr %3, align 4
  ret { i64, i64 } %25
}

; Function Attrs: mustprogress nounwind uwtable
define linkonce_odr dso_local void @_ZN20b3ConvexHullInternal7Point64C2Elll(ptr noundef nonnull align 8 dereferenceable(24) %0, i64 noundef %1, i64 noundef %2, i64 noundef %3) unnamed_addr #3 comdat align 2 {
  %5 = alloca ptr, align 8
  %6 = alloca i64, align 8
  %7 = alloca i64, align 8
  %8 = alloca i64, align 8
  store ptr %0, ptr %5, align 8, !tbaa !113
  store i64 %1, ptr %6, align 8, !tbaa !9
  store i64 %2, ptr %7, align 8, !tbaa !9
  store i64 %3, ptr %8, align 8, !tbaa !9
  %9 = load ptr, ptr %5, align 8
  %10 = getelementptr inbounds nuw %"class.b3ConvexHullInternal::Point64", ptr %9, i32 0, i32 0
  %11 = load i64, ptr %6, align 8, !tbaa !9
  store i64 %11, ptr %10, align 8, !tbaa !115
  %12 = getelementptr inbounds nuw %"class.b3ConvexHullInternal::Point64", ptr %9, i32 0, i32 1
  %13 = load i64, ptr %7, align 8, !tbaa !9
  store i64 %13, ptr %12, align 8, !tbaa !117
  %14 = getelementptr inbounds nuw %"class.b3ConvexHullInternal::Point64", ptr %9, i32 0, i32 2
  %15 = load i64, ptr %8, align 8, !tbaa !9
  store i64 %15, ptr %14, align 8, !tbaa !118
  ret void
}

; Function Attrs: mustprogress nounwind uwtable
define linkonce_odr dso_local noundef i64 @_ZNK20b3ConvexHullInternal7Point643dotERKS0_(ptr noundef nonnull align 8 dereferenceable(24) %0, ptr noundef nonnull align 8 dereferenceable(24) %1) #3 comdat align 2 {
  %3 = alloca ptr, align 8
  %4 = alloca ptr, align 8
  store ptr %0, ptr %3, align 8, !tbaa !113
  store ptr %1, ptr %4, align 8, !tbaa !113
  %5 = load ptr, ptr %3, align 8
  %6 = getelementptr inbounds nuw %"class.b3ConvexHullInternal::Point64", ptr %5, i32 0, i32 0
  %7 = load i64, ptr %6, align 8, !tbaa !115
  %8 = load ptr, ptr %4, align 8, !tbaa !113
  %9 = getelementptr inbounds nuw %"class.b3ConvexHullInternal::Point64", ptr %8, i32 0, i32 0
  %10 = load i64, ptr %9, align 8, !tbaa !115
  %11 = mul nsw i64 %7, %10
  %12 = getelementptr inbounds nuw %"class.b3ConvexHullInternal::Point64", ptr %5, i32 0, i32 1
  %13 = load i64, ptr %12, align 8, !tbaa !117
  %14 = load ptr, ptr %4, align 8, !tbaa !113
  %15 = getelementptr inbounds nuw %"class.b3ConvexHullInternal::Point64", ptr %14, i32 0, i32 1
  %16 = load i64, ptr %15, align 8, !tbaa !117
  %17 = mul nsw i64 %13, %16
  %18 = add nsw i64 %11, %17
  %19 = getelementptr inbounds nuw %"class.b3ConvexHullInternal::Point64", ptr %5, i32 0, i32 2
  %20 = load i64, ptr %19, align 8, !tbaa !118
  %21 = load ptr, ptr %4, align 8, !tbaa !113
  %22 = getelementptr inbounds nuw %"class.b3ConvexHullInternal::Point64", ptr %21, i32 0, i32 2
  %23 = load i64, ptr %22, align 8, !tbaa !118
  %24 = mul nsw i64 %20, %23
  %25 = add nsw i64 %18, %24
  ret i64 %25
}

; Function Attrs: mustprogress uwtable
define linkonce_odr dso_local { i64, i64 } @_ZNK20b3ConvexHullInternal6VertexmiERKS0_(ptr noundef nonnull align 8 dereferenceable(124) %0, ptr noundef nonnull align 8 dereferenceable(124) %1) #0 comdat align 2 {
  %3 = alloca %"class.b3ConvexHullInternal::Point32", align 4
  %4 = alloca ptr, align 8
  %5 = alloca ptr, align 8
  store ptr %0, ptr %4, align 8, !tbaa !37
  store ptr %1, ptr %5, align 8, !tbaa !37
  %6 = load ptr, ptr %4, align 8
  %7 = getelementptr inbounds nuw %"class.b3ConvexHullInternal::Vertex", ptr %6, i32 0, i32 6
  %8 = load ptr, ptr %5, align 8, !tbaa !37
  %9 = getelementptr inbounds nuw %"class.b3ConvexHullInternal::Vertex", ptr %8, i32 0, i32 6
  %10 = call { i64, i64 } @_ZNK20b3ConvexHullInternal7Point32miERKS0_(ptr noundef nonnull align 4 dereferenceable(16) %7, ptr noundef nonnull align 4 dereferenceable(16) %9)
  %11 = getelementptr inbounds nuw { i64, i64 }, ptr %3, i32 0, i32 0
  %12 = extractvalue { i64, i64 } %10, 0
  store i64 %12, ptr %11, align 4
  %13 = getelementptr inbounds nuw { i64, i64 }, ptr %3, i32 0, i32 1
  %14 = extractvalue { i64, i64 } %10, 1
  store i64 %14, ptr %13, align 4
  %15 = load { i64, i64 }, ptr %3, align 4
  ret { i64, i64 } %15
}

; Function Attrs: mustprogress uwtable
define linkonce_odr dso_local void @_ZNK20b3ConvexHullInternal7Point325crossERKS0_(ptr dead_on_unwind noalias writable sret(%"class.b3ConvexHullInternal::Point64") align 8 %0, ptr noundef nonnull align 4 dereferenceable(16) %1, ptr noundef nonnull align 4 dereferenceable(16) %2) #0 comdat align 2 {
  %4 = alloca ptr, align 8
  %5 = alloca ptr, align 8
  store ptr %1, ptr %4, align 8, !tbaa !99
  store ptr %2, ptr %5, align 8, !tbaa !99
  %6 = load ptr, ptr %4, align 8
  %7 = getelementptr inbounds nuw %"class.b3ConvexHullInternal::Point32", ptr %6, i32 0, i32 1
  %8 = load i32, ptr %7, align 4, !tbaa !102
  %9 = load ptr, ptr %5, align 8, !tbaa !99
  %10 = getelementptr inbounds nuw %"class.b3ConvexHullInternal::Point32", ptr %9, i32 0, i32 2
  %11 = load i32, ptr %10, align 4, !tbaa !103
  %12 = mul nsw i32 %8, %11
  %13 = getelementptr inbounds nuw %"class.b3ConvexHullInternal::Point32", ptr %6, i32 0, i32 2
  %14 = load i32, ptr %13, align 4, !tbaa !103
  %15 = load ptr, ptr %5, align 8, !tbaa !99
  %16 = getelementptr inbounds nuw %"class.b3ConvexHullInternal::Point32", ptr %15, i32 0, i32 1
  %17 = load i32, ptr %16, align 4, !tbaa !102
  %18 = mul nsw i32 %14, %17
  %19 = sub nsw i32 %12, %18
  %20 = sext i32 %19 to i64
  %21 = getelementptr inbounds nuw %"class.b3ConvexHullInternal::Point32", ptr %6, i32 0, i32 2
  %22 = load i32, ptr %21, align 4, !tbaa !103
  %23 = load ptr, ptr %5, align 8, !tbaa !99
  %24 = getelementptr inbounds nuw %"class.b3ConvexHullInternal::Point32", ptr %23, i32 0, i32 0
  %25 = load i32, ptr %24, align 4, !tbaa !101
  %26 = mul nsw i32 %22, %25
  %27 = getelementptr inbounds nuw %"class.b3ConvexHullInternal::Point32", ptr %6, i32 0, i32 0
  %28 = load i32, ptr %27, align 4, !tbaa !101
  %29 = load ptr, ptr %5, align 8, !tbaa !99
  %30 = getelementptr inbounds nuw %"class.b3ConvexHullInternal::Point32", ptr %29, i32 0, i32 2
  %31 = load i32, ptr %30, align 4, !tbaa !103
  %32 = mul nsw i32 %28, %31
  %33 = sub nsw i32 %26, %32
  %34 = sext i32 %33 to i64
  %35 = getelementptr inbounds nuw %"class.b3ConvexHullInternal::Point32", ptr %6, i32 0, i32 0
  %36 = load i32, ptr %35, align 4, !tbaa !101
  %37 = load ptr, ptr %5, align 8, !tbaa !99
  %38 = getelementptr inbounds nuw %"class.b3ConvexHullInternal::Point32", ptr %37, i32 0, i32 1
  %39 = load i32, ptr %38, align 4, !tbaa !102
  %40 = mul nsw i32 %36, %39
  %41 = getelementptr inbounds nuw %"class.b3ConvexHullInternal::Point32", ptr %6, i32 0, i32 1
  %42 = load i32, ptr %41, align 4, !tbaa !102
  %43 = load ptr, ptr %5, align 8, !tbaa !99
  %44 = getelementptr inbounds nuw %"class.b3ConvexHullInternal::Point32", ptr %43, i32 0, i32 0
  %45 = load i32, ptr %44, align 4, !tbaa !101
  %46 = mul nsw i32 %42, %45
  %47 = sub nsw i32 %40, %46
  %48 = sext i32 %47 to i64
  call void @_ZN20b3ConvexHullInternal7Point64C2Elll(ptr noundef nonnull align 8 dereferenceable(24) %0, i64 noundef %20, i64 noundef %34, i64 noundef %48)
  ret void
}

; Function Attrs: mustprogress uwtable
define dso_local noundef i32 @_ZN20b3ConvexHullInternal14getOrientationEPKNS_4EdgeES2_RKNS_7Point32ES5_(ptr noundef %0, ptr noundef %1, ptr noundef nonnull align 4 dereferenceable(16) %2, ptr noundef nonnull align 4 dereferenceable(16) %3) #0 align 2 {
  %5 = alloca i32, align 4
  %6 = alloca ptr, align 8
  %7 = alloca ptr, align 8
  %8 = alloca ptr, align 8
  %9 = alloca ptr, align 8
  %10 = alloca %"class.b3ConvexHullInternal::Point64", align 8
  %11 = alloca %"class.b3ConvexHullInternal::Point64", align 8
  %12 = alloca %"class.b3ConvexHullInternal::Point32", align 4
  %13 = alloca %"class.b3ConvexHullInternal::Point32", align 4
  %14 = alloca i64, align 8
  store ptr %0, ptr %6, align 8, !tbaa !39
  store ptr %1, ptr %7, align 8, !tbaa !39
  store ptr %2, ptr %8, align 8, !tbaa !99
  store ptr %3, ptr %9, align 8, !tbaa !99
  %15 = load ptr, ptr %6, align 8, !tbaa !39
  %16 = getelementptr inbounds nuw %"class.b3ConvexHullInternal::Edge", ptr %15, i32 0, i32 0
  %17 = load ptr, ptr %16, align 8, !tbaa !70
  %18 = load ptr, ptr %7, align 8, !tbaa !39
  %19 = icmp eq ptr %17, %18
  br i1 %19, label %20, label %60

20:                                               ; preds = %4
  %21 = load ptr, ptr %6, align 8, !tbaa !39
  %22 = getelementptr inbounds nuw %"class.b3ConvexHullInternal::Edge", ptr %21, i32 0, i32 1
  %23 = load ptr, ptr %22, align 8, !tbaa !104
  %24 = load ptr, ptr %7, align 8, !tbaa !39
  %25 = icmp eq ptr %23, %24
  br i1 %25, label %26, label %59

26:                                               ; preds = %20
  call void @llvm.lifetime.start.p0(i64 24, ptr %10) #13
  %27 = load ptr, ptr %9, align 8, !tbaa !99
  %28 = load ptr, ptr %8, align 8, !tbaa !99
  call void @_ZNK20b3ConvexHullInternal7Point325crossERKS0_(ptr dead_on_unwind writable sret(%"class.b3ConvexHullInternal::Point64") align 8 %10, ptr noundef nonnull align 4 dereferenceable(16) %27, ptr noundef nonnull align 4 dereferenceable(16) %28)
  call void @llvm.lifetime.start.p0(i64 24, ptr %11) #13
  call void @llvm.lifetime.start.p0(i64 16, ptr %12) #13
  %29 = load ptr, ptr %6, align 8, !tbaa !39
  %30 = getelementptr inbounds nuw %"class.b3ConvexHullInternal::Edge", ptr %29, i32 0, i32 3
  %31 = load ptr, ptr %30, align 8, !tbaa !57
  %32 = load ptr, ptr %7, align 8, !tbaa !39
  %33 = getelementptr inbounds nuw %"class.b3ConvexHullInternal::Edge", ptr %32, i32 0, i32 2
  %34 = load ptr, ptr %33, align 8, !tbaa !41
  %35 = getelementptr inbounds nuw %"class.b3ConvexHullInternal::Edge", ptr %34, i32 0, i32 3
  %36 = load ptr, ptr %35, align 8, !tbaa !57
  %37 = call { i64, i64 } @_ZNK20b3ConvexHullInternal6VertexmiERKS0_(ptr noundef nonnull align 8 dereferenceable(124) %31, ptr noundef nonnull align 8 dereferenceable(124) %36)
  %38 = getelementptr inbounds nuw { i64, i64 }, ptr %12, i32 0, i32 0
  %39 = extractvalue { i64, i64 } %37, 0
  store i64 %39, ptr %38, align 4
  %40 = getelementptr inbounds nuw { i64, i64 }, ptr %12, i32 0, i32 1
  %41 = extractvalue { i64, i64 } %37, 1
  store i64 %41, ptr %40, align 4
  call void @llvm.lifetime.start.p0(i64 16, ptr %13) #13
  %42 = load ptr, ptr %7, align 8, !tbaa !39
  %43 = getelementptr inbounds nuw %"class.b3ConvexHullInternal::Edge", ptr %42, i32 0, i32 3
  %44 = load ptr, ptr %43, align 8, !tbaa !57
  %45 = load ptr, ptr %7, align 8, !tbaa !39
  %46 = getelementptr inbounds nuw %"class.b3ConvexHullInternal::Edge", ptr %45, i32 0, i32 2
  %47 = load ptr, ptr %46, align 8, !tbaa !41
  %48 = getelementptr inbounds nuw %"class.b3ConvexHullInternal::Edge", ptr %47, i32 0, i32 3
  %49 = load ptr, ptr %48, align 8, !tbaa !57
  %50 = call { i64, i64 } @_ZNK20b3ConvexHullInternal6VertexmiERKS0_(ptr noundef nonnull align 8 dereferenceable(124) %44, ptr noundef nonnull align 8 dereferenceable(124) %49)
  %51 = getelementptr inbounds nuw { i64, i64 }, ptr %13, i32 0, i32 0
  %52 = extractvalue { i64, i64 } %50, 0
  store i64 %52, ptr %51, align 4
  %53 = getelementptr inbounds nuw { i64, i64 }, ptr %13, i32 0, i32 1
  %54 = extractvalue { i64, i64 } %50, 1
  store i64 %54, ptr %53, align 4
  call void @_ZNK20b3ConvexHullInternal7Point325crossERKS0_(ptr dead_on_unwind writable sret(%"class.b3ConvexHullInternal::Point64") align 8 %11, ptr noundef nonnull align 4 dereferenceable(16) %12, ptr noundef nonnull align 4 dereferenceable(16) %13)
  call void @llvm.lifetime.end.p0(i64 16, ptr %13) #13
  call void @llvm.lifetime.end.p0(i64 16, ptr %12) #13
  call void @llvm.lifetime.start.p0(i64 8, ptr %14) #13
  %55 = call noundef i64 @_ZNK20b3ConvexHullInternal7Point643dotERKS0_(ptr noundef nonnull align 8 dereferenceable(24) %10, ptr noundef nonnull align 8 dereferenceable(24) %11)
  store i64 %55, ptr %14, align 8, !tbaa !9
  %56 = load i64, ptr %14, align 8, !tbaa !9
  %57 = icmp sgt i64 %56, 0
  %58 = select i1 %57, i32 2, i32 1
  store i32 %58, ptr %5, align 4
  call void @llvm.lifetime.end.p0(i64 8, ptr %14) #13
  call void @llvm.lifetime.end.p0(i64 24, ptr %11) #13
  call void @llvm.lifetime.end.p0(i64 24, ptr %10) #13
  br label %68

59:                                               ; preds = %20
  store i32 2, ptr %5, align 4
  br label %68

60:                                               ; preds = %4
  %61 = load ptr, ptr %6, align 8, !tbaa !39
  %62 = getelementptr inbounds nuw %"class.b3ConvexHullInternal::Edge", ptr %61, i32 0, i32 1
  %63 = load ptr, ptr %62, align 8, !tbaa !104
  %64 = load ptr, ptr %7, align 8, !tbaa !39
  %65 = icmp eq ptr %63, %64
  br i1 %65, label %66, label %67

66:                                               ; preds = %60
  store i32 1, ptr %5, align 4
  br label %68

67:                                               ; preds = %60
  store i32 0, ptr %5, align 4
  br label %68

68:                                               ; preds = %67, %66, %59, %26
  %69 = load i32, ptr %5, align 4
  ret i32 %69
}