; Function Attrs: mustprogress nofree norecurse nosync nounwind willreturn memory(read, inaccessiblemem: none) uwtable
define dso_local noundef range(i32 0, 3) i32 @_ZN20b3ConvexHullInternal14getOrientationEPKNS_4EdgeES2_RKNS_7Point32ES5_(ptr noundef readonly captures(none) %0, ptr noundef readonly captures(address) %1, ptr noundef nonnull readonly align 4 captures(none) dereferenceable(16) %2, ptr noundef nonnull readonly align 4 captures(none) dereferenceable(16) %3) local_unnamed_addr #6 align 2 {
  %5 = load ptr, ptr %0, align 8, !tbaa !35
  %6 = icmp eq ptr %5, %1
  %7 = getelementptr inbounds nuw i8, ptr %0, i64 8
  %8 = load ptr, ptr %7, align 8, !tbaa !81
  %9 = icmp eq ptr %8, %1
  br i1 %6, label %10, label %85

10:                                               ; preds = %4
  br i1 %9, label %11, label %86

11:                                               ; preds = %10
  %12 = getelementptr inbounds nuw i8, ptr %3, i64 4
  %13 = load i32, ptr %12, align 4, !tbaa !78, !noalias !103
  %14 = getelementptr inbounds nuw i8, ptr %2, i64 8
  %15 = load i32, ptr %14, align 4, !tbaa !79, !noalias !103
  %16 = mul nsw i32 %15, %13
  %17 = getelementptr inbounds nuw i8, ptr %3, i64 8
  %18 = load i32, ptr %17, align 4, !tbaa !79, !noalias !103
  %19 = getelementptr inbounds nuw i8, ptr %2, i64 4
  %20 = load i32, ptr %19, align 4, !tbaa !78, !noalias !103
  %21 = mul nsw i32 %20, %18
  %22 = sub nsw i32 %16, %21
  %23 = sext i32 %22 to i64
  %24 = load i32, ptr %2, align 4, !tbaa !77, !noalias !103
  %25 = mul nsw i32 %24, %18
  %26 = load i32, ptr %3, align 4, !tbaa !77, !noalias !103
  %27 = mul nsw i32 %26, %15
  %28 = sub nsw i32 %25, %27
  %29 = sext i32 %28 to i64
  %30 = mul nsw i32 %26, %20
  %31 = mul nsw i32 %24, %13
  %32 = sub nsw i32 %30, %31
  %33 = sext i32 %32 to i64
  %34 = getelementptr inbounds nuw i8, ptr %0, i64 24
  %35 = load ptr, ptr %34, align 8, !tbaa !53
  %36 = getelementptr inbounds nuw i8, ptr %1, i64 16
  %37 = load ptr, ptr %36, align 8, !tbaa !41
  %38 = getelementptr inbounds nuw i8, ptr %37, i64 24
  %39 = load ptr, ptr %38, align 8, !tbaa !53
  %40 = getelementptr inbounds nuw i8, ptr %35, i64 104
  %41 = getelementptr inbounds nuw i8, ptr %39, i64 104
  %42 = load i32, ptr %40, align 4, !tbaa !77
  %43 = load i32, ptr %41, align 4, !tbaa !77
  %44 = sub nsw i32 %42, %43
  %45 = getelementptr inbounds nuw i8, ptr %35, i64 108
  %46 = load i32, ptr %45, align 4, !tbaa !78
  %47 = getelementptr inbounds nuw i8, ptr %39, i64 108
  %48 = load i32, ptr %47, align 4, !tbaa !78
  %49 = sub nsw i32 %46, %48
  %50 = getelementptr inbounds nuw i8, ptr %35, i64 112
  %51 = load i32, ptr %50, align 4, !tbaa !79
  %52 = getelementptr inbounds nuw i8, ptr %39, i64 112
  %53 = load i32, ptr %52, align 4, !tbaa !79
  %54 = sub nsw i32 %51, %53
  %55 = getelementptr inbounds nuw i8, ptr %1, i64 24
  %56 = load ptr, ptr %55, align 8, !tbaa !53
  %57 = getelementptr inbounds nuw i8, ptr %56, i64 104
  %58 = load i32, ptr %57, align 4, !tbaa !77
  %59 = sub nsw i32 %58, %43
  %60 = getelementptr inbounds nuw i8, ptr %56, i64 108
  %61 = load i32, ptr %60, align 4, !tbaa !78
  %62 = sub nsw i32 %61, %48
  %63 = getelementptr inbounds nuw i8, ptr %56, i64 112
  %64 = load i32, ptr %63, align 4, !tbaa !79
  %65 = sub nsw i32 %64, %53
  %66 = mul nsw i32 %65, %49
  %67 = mul nsw i32 %62, %54
  %68 = sub nsw i32 %66, %67
  %69 = sext i32 %68 to i64
  %70 = mul nsw i32 %59, %54
  %71 = mul nsw i32 %65, %44
  %72 = sub nsw i32 %70, %71
  %73 = sext i32 %72 to i64
  %74 = mul nsw i32 %62, %44
  %75 = mul nsw i32 %59, %49
  %76 = sub nsw i32 %74, %75
  %77 = sext i32 %76 to i64
  %78 = mul nsw i64 %69, %23
  %79 = mul nsw i64 %73, %29
  %80 = mul nsw i64 %77, %33
  %81 = add i64 %78, %80
  %82 = add i64 %81, %79
  %83 = icmp sgt i64 %82, 0
  %84 = select i1 %83, i32 2, i32 1
  br label %86

85:                                               ; preds = %4
  %. = zext i1 %9 to i32
  br label %86

86:                                               ; preds = %85, %10, %11
  %.0 = phi i32 [ %84, %11 ], [ 2, %10 ], [ %., %85 ]
  ret i32 %.0
}